; Function Attrs: mustprogress nofree norecurse nosync nounwind willreturn memory(argmem: write) uwtable
define dso_local void @_ZN27btConvex2dConvex2dAlgorithm10CreateFuncC2EP22btVoronoiSimplexSolverP30btConvexPenetrationDepthSolver(ptr noundef nonnull writeonly align 8 captures(none) dereferenceable(40) initializes((0, 9), (16, 32)) %0, ptr noundef %1, ptr noundef %2) unnamed_addr #0 align 2 {
  %4 = getelementptr inbounds nuw i8, ptr %0, i64 8
  store i8 0, ptr %4, align 8, !tbaa !4
  store ptr getelementptr inbounds nuw inrange(-16, 24) (i8, ptr @_ZTVN27btConvex2dConvex2dAlgorithm10CreateFuncE, i64 16), ptr %0, align 8, !tbaa !9
  %5 = getelementptr inbounds nuw i8, ptr %0, i64 24
  store ptr %1, ptr %5, align 8, !tbaa !11
  %6 = getelementptr inbounds nuw i8, ptr %0, i64 16
  store ptr %2, ptr %6, align 8, !tbaa !17
  ret void
}